Certificate:
    Data:
        Version: 3 (0x2)
        Serial Number:
            89:51:7a:ee:88:3b:32:fb
        Signature Algorithm: sha256WithRSAEncryption
        Issuer: CN = CentOS Secure Boot CA 2, emailAddress = security@centos.org
        Validity
            Not Before: Jun  9 08:19:32 2020 GMT
            Not After : Jan 18 08:19:32 2038 GMT
        Subject: CN = CentOS Secure Boot CA 2, emailAddress = security@centos.org
        Subject Public Key Info:
            Public Key Algorithm: rsaEncryption
                RSA Public-Key: (2048 bit)
                Modulus:
                    00:a1:6a:d6:cd:69:00:d5:d1:14:c2:a9:f7:f5:b6:
                    5f:76:c4:8e:a0:bb:59:3c:8d:8b:9f:5b:c1:72:cd:
                    9e:ae:0e:7c:68:1a:90:53:d0:b8:94:58:ab:86:8c:
                    c4:3c:f4:98:22:02:91:73:0d:84:8b:5a:b6:60:f0:
                    d6:d3:9d:57:73:d2:19:f2:e1:23:32:b2:97:b9:c1:
                    e5:24:e8:84:e8:29:7b:c4:7a:36:4d:16:7e:a2:bd:
                    a7:b6:bd:f4:f4:fc:04:8a:b2:02:2f:51:cc:f8:b1:
                    61:cc:2b:8d:ef:6d:fb:ff:a5:5a:58:18:b8:28:1b:
                    96:8d:52:4b:7b:56:19:1e:51:1c:09:cd:1d:ce:0e:
                    00:e9:68:be:1b:43:fe:ea:12:8f:00:48:70:84:bd:
                    0c:7a:92:51:b7:df:46:74:e8:ed:24:8d:2e:86:2b:
                    5d:9c:3c:2d:6d:e5:99:62:99:55:c2:35:63:f5:8d:
                    fd:29:31:69:a1:68:1a:d9:8d:bc:98:d2:3f:11:ed:
                    89:ec:dd:c1:28:bc:03:36:df:47:21:b1:57:72:17:
                    14:98:a6:a0:8b:cc:c9:66:58:dc:62:22:5b:dc:02:
                    80:c8:44:c5:84:6b:b0:da:49:20:1f:25:61:fe:ca:
                    00:33:69:dd:4f:1e:59:c2:07:4c:c0:15:b2:c0:30:
                    91:f5
                Exponent: 65537 (0x10001)
        X509v3 extensions:
            X509v3 Subject Key Identifier: 
                70:00:7F:99:20:9C:12:6B:E1:47:74:EA:EC:7B:6D:96:31:F3:4D:CA
            X509v3 Authority Key Identifier: 
                keyid:70:00:7F:99:20:9C:12:6B:E1:47:74:EA:EC:7B:6D:96:31:F3:4D:CA

            X509v3 Basic Constraints: critical
                CA:TRUE
    Signature Algorithm: sha256WithRSAEncryption
         1e:e4:d7:15:49:47:7f:3c:e6:6c:26:48:9e:a7:c0:13:37:05:
         e0:94:b0:1e:63:10:79:e4:5e:36:b1:7c:79:38:e7:4a:30:19:
         a1:a9:64:08:54:9b:da:8a:1f:f0:b1:f2:88:05:f7:54:1a:fd:
         8b:f5:d1:fc:21:08:22:53:53:d1:63:1d:1b:69:25:49:9e:8d:
         c7:71:04:db:0a:a2:ef:9e:f7:24:ba:c4:7b:21:44:c3:00:58:
         fb:ef:83:2f:5f:04:ba:c9:5e:a9:5f:3c:43:9a:e8:76:b7:c8:
         51:92:d3:8a:15:e5:2d:76:50:d8:aa:0f:57:dc:86:b7:1a:4a:
         01:e6:1b:b2:11:bb:9a:65:33:5c:57:84:c0:7d:4f:f2:00:44:
         4d:20:08:11:b3:e7:cb:41:4e:f4:3a:01:a5:5a:ca:77:e4:9f:
         2a:3e:46:4a:69:b1:9f:d2:cb:ab:0d:ad:b1:6b:a8:80:a0:5c:
         a4:9f:1a:ee:a0:a4:3c:b8:d4:81:f4:a0:7b:ff:42:6f:56:8b:
         8d:c7:dd:3e:9d:cc:a4:59:6f:7a:19:52:ac:f3:e1:f9:58:6c:
         da:d7:41:6a:ad:c8:6d:4e:14:8d:09:25:d3:b4:b6:d3:5e:82:
         b4:02:d7:6f:bb:4a:34:e1:75:1b:b0:21:8c:9e:57:06:cc:05:
         5b:df:f9:b4
-----BEGIN CERTIFICATE-----
MIIDYjCCAkqgAwIBAgIJAIlReu6IOzL7MA0GCSqGSIb3DQEBCwUAMEYxIDAeBgNV
BAMMF0NlbnRPUyBTZWN1cmUgQm9vdCBDQSAyMSIwIAYJKoZIhvcNAQkBFhNzZWN1
cml0eUBjZW50b3Mub3JnMB4XDTIwMDYwOTA4MTkzMloXDTM4MDExODA4MTkzMlow
RjEgMB4GA1UEAwwXQ2VudE9TIFNlY3VyZSBCb290IENBIDIxIjAgBgkqhkiG9w0B
CQEWE3NlY3VyaXR5QGNlbnRvcy5vcmcwggEiMA0GCSqGSIb3DQEBAQUAA4IBDwAw
ggEKAoIBAQChatbNaQDV0RTCqff1tl92xI6gu1k8jYufW8FyzZ6uDnxoGpBT0LiU
WKuGjMQ89JgiApFzDYSLWrZg8NbTnVdz0hny4SMyspe5weUk6IToKXvEejZNFn6i
vae2vfT0/ASKsgIvUcz4sWHMK43vbfv/pVpYGLgoG5aNUkt7VhkeURwJzR3ODgDp
aL4bQ/7qEo8ASHCEvQx6klG330Z06O0kjS6GK12cPC1t5ZlimVXCNWP1jf0pMWmh
aBrZjbyY0j8R7Yns3cEovAM230chsVdyFxSYpqCLzMlmWNxiIlvcAoDIRMWEa7Da
SSAfJWH+ygAzad1PHlnCB0zAFbLAMJH1AgMBAAGjUzBRMB0GA1UdDgQWBBRwAH+Z
IJwSa+FHdOrse22WMfNNyjAfBgNVHSMEGDAWgBRwAH+ZIJwSa+FHdOrse22WMfNN
yjAPBgNVHRMBAf8EBTADAQH/MA0GCSqGSIb3DQEBCwUAA4IBAQAe5NcVSUd/POZs
Jkiep8ATNwXglLAeYxB55F42sXx5OOdKMBmhqWQIVJvaih/wsfKIBfdUGv2L9dH8
IQgiU1PRYx0baSVJno3HcQTbCqLvnvckusR7IUTDAFj774MvXwS6yV6pXzxDmuh2
t8hRktOKFeUtdlDYqg9X3Ia3GkoB5huyEbuaZTNcV4TAfU/yAERNIAgRs+fLQU70
OgGlWsp35J8qPkZKabGf0surDa2xa6iAoFyknxruoKQ8uNSB9KB7/0JvVouNx90+
ncykWW96GVKs8+H5WGza10FqrchtThSNCSXTtLbTXoK0Atdvu0o04XUbsCGMnlcG
zAVb3/m0
-----END CERTIFICATE-----
