Certificate:
    Data:
        Version: 3 (0x2)
        Serial Number:
            fb:12:2a:c1:fe:e0:8f:c0
        Signature Algorithm: sha256WithRSAEncryption
        Issuer: CN = CentOS Secure Boot (CA key 1), emailAddress = security@centos.org
        Validity
            Not Before: Jun 13 08:04:07 2018 GMT
            Not After : Nov 20 08:04:07 2037 GMT
        Subject: CN = CentOS Secure Boot (CA key 1), emailAddress = security@centos.org
        Subject Public Key Info:
            Public Key Algorithm: rsaEncryption
                RSA Public-Key: (2048 bit)
                Modulus:
                    00:e7:d4:52:25:af:2f:a9:92:69:b3:97:bc:00:a3:
                    85:e8:71:06:6f:83:a3:f9:23:88:50:0f:40:c4:a0:
                    d4:ef:43:54:f3:fd:65:fc:f8:91:ce:cc:fa:9d:be:
                    a7:d9:10:2e:c5:5b:af:85:92:d3:86:de:85:78:42:
                    83:a5:8a:5e:4c:56:ba:69:52:f4:28:e9:1d:c4:32:
                    2b:0f:d7:b3:96:71:ee:9a:1f:04:f3:37:4e:8a:89:
                    06:ba:b5:50:35:f9:fd:3a:2e:9a:21:75:c1:a0:92:
                    33:03:de:9d:dc:32:af:14:36:34:f1:f1:dd:2f:d1:
                    25:81:4e:5d:71:e9:8b:c7:e2:92:e9:7c:5d:dd:ae:
                    30:c3:70:13:ce:33:b3:74:11:f9:a5:25:78:ab:2e:
                    37:f2:5c:06:a7:2f:16:b1:a3:11:c4:06:0c:be:4a:
                    c2:b3:09:02:25:30:b1:fe:cb:66:c5:cf:7c:ea:c2:
                    55:ab:4c:bc:05:35:44:88:91:69:ef:c3:97:d7:aa:
                    e3:fb:28:81:37:49:86:50:37:8c:b8:2f:96:f8:bd:
                    59:3d:31:04:2e:41:ab:a4:9f:3a:2a:d8:58:35:c3:
                    dd:07:c2:c4:71:7c:a7:f6:0e:a1:c8:5f:3b:8c:9a:
                    3c:8d:f9:87:7e:7b:d9:e0:c8:21:17:01:f3:92:d6:
                    45:6b
                Exponent: 65537 (0x10001)
        X509v3 extensions:
            X509v3 Subject Key Identifier: 
                54:EC:81:85:89:3E:E9:1A:DB:08:F7:44:88:54:7E:8E:3F:74:3A:F3
            X509v3 Authority Key Identifier: 
                keyid:54:EC:81:85:89:3E:E9:1A:DB:08:F7:44:88:54:7E:8E:3F:74:3A:F3

            X509v3 Basic Constraints: 
                CA:TRUE
    Signature Algorithm: sha256WithRSAEncryption
         9f:bd:5b:2a:25:18:bf:4f:2b:52:b5:3a:b4:d9:68:1a:13:8b:
         4a:ad:fd:d6:31:ef:d0:f0:86:30:8d:f8:52:0c:33:e8:97:3d:
         87:38:83:a7:04:31:74:91:cc:8b:8f:64:fa:11:c0:f6:c1:e7:
         81:05:32:54:d3:90:79:17:7d:77:3e:c3:f2:a6:0b:a3:dd:97:
         c5:c6:61:e9:8c:8a:11:5e:0a:20:68:28:b1:d2:dc:a4:c1:57:
         e1:73:c0:bd:d0:f1:40:61:95:da:07:6c:b6:9d:1d:b8:b3:6c:
         d0:da:c0:1e:86:ad:d3:a8:44:4d:fa:61:1f:75:4f:04:27:d9:
         06:94:df:6b:c3:1d:e8:f3:1b:76:27:87:d4:a6:8a:21:bf:5f:
         ed:10:e4:d2:fa:00:78:05:fb:87:76:29:73:8e:86:1e:c0:38:
         63:6a:9a:cd:eb:9c:de:5e:b2:b4:f7:ee:2d:06:1b:71:27:16:
         6e:70:18:5b:aa:de:06:f7:60:86:db:6f:d8:e2:ae:63:51:30:
         cc:9b:1c:2d:6d:02:22:28:85:66:3f:b1:53:89:ff:9c:b7:bc:
         84:52:15:0c:2a:d9:e5:72:f7:ee:c5:31:2a:24:04:c9:6d:ec:
         f9:b4:b1:94:5e:8a:f5:29:32:e9:67:b1:81:f2:74:4f:65:a5:
         b2:42:3a:58
-----BEGIN CERTIFICATE-----
MIIDazCCAlOgAwIBAgIJAPsSKsH+4I/AMA0GCSqGSIb3DQEBCwUAMEwxJjAkBgNV
BAMMHUNlbnRPUyBTZWN1cmUgQm9vdCAoQ0Ega2V5IDEpMSIwIAYJKoZIhvcNAQkB
FhNzZWN1cml0eUBjZW50b3Mub3JnMB4XDTE4MDYxMzA4MDQwN1oXDTM3MTEyMDA4
MDQwN1owTDEmMCQGA1UEAwwdQ2VudE9TIFNlY3VyZSBCb290IChDQSBrZXkgMSkx
IjAgBgkqhkiG9w0BCQEWE3NlY3VyaXR5QGNlbnRvcy5vcmcwggEiMA0GCSqGSIb3
DQEBAQUAA4IBDwAwggEKAoIBAQDn1FIlry+pkmmzl7wAo4XocQZvg6P5I4hQD0DE
oNTvQ1Tz/WX8+JHOzPqdvqfZEC7FW6+FktOG3oV4QoOlil5MVrppUvQo6R3EMisP
17OWce6aHwTzN06KiQa6tVA1+f06LpohdcGgkjMD3p3cMq8UNjTx8d0v0SWBTl1x
6YvH4pLpfF3drjDDcBPOM7N0EfmlJXirLjfyXAanLxaxoxHEBgy+SsKzCQIlMLH+
y2bFz3zqwlWrTLwFNUSIkWnvw5fXquP7KIE3SYZQN4y4L5b4vVk9MQQuQauknzoq
2Fg1w90HwsRxfKf2DqHIXzuMmjyN+Yd+e9ngyCEXAfOS1kVrAgMBAAGjUDBOMB0G
A1UdDgQWBBRU7IGFiT7pGtsI90SIVH6OP3Q68zAfBgNVHSMEGDAWgBRU7IGFiT7p
GtsI90SIVH6OP3Q68zAMBgNVHRMEBTADAQH/MA0GCSqGSIb3DQEBCwUAA4IBAQCf
vVsqJRi/TytStTq02WgaE4tKrf3WMe/Q8IYwjfhSDDPolz2HOIOnBDF0kcyLj2T6
EcD2weeBBTJU05B5F313PsPypguj3ZfFxmHpjIoRXgogaCix0tykwVfhc8C90PFA
YZXaB2y2nR24s2zQ2sAehq3TqERN+mEfdU8EJ9kGlN9rwx3o8xt2J4fUpoohv1/t
EOTS+gB4BfuHdilzjoYewDhjaprN65zeXrK09+4tBhtxJxZucBhbqt4G92CG22/Y
4q5jUTDMmxwtbQIiKIVmP7FTif+ct7yEUhUMKtnlcvfuxTEqJATJbez5tLGUXor1
KTLpZ7GB8nRPZaWyQjpY
-----END CERTIFICATE-----
