Certificate:
    Data:
        Version: 3 (0x2)
        Serial Number:
            22:39:af:04:13:0c:44:44:b3:f3:77:ed:be:1a:f7:86
        Signature Algorithm: sha256WithRSAEncryption
        Issuer: C = US, ST = Massachusetts, L = Cambridge, O = "Red Hat, Inc.", OU = Fedora Secure Boot CA 20200709, CN = fedoraca
        Validity
            Not Before: Jul 13 17:31:16 2020 GMT
            Not After : Jan 19 03:14:07 2037 GMT
        Subject: C = US, ST = Massachusetts, L = Cambridge, O = "Red Hat, Inc.", OU = Fedora Secure Boot CA 20200709, CN = fedoraca
        Subject Public Key Info:
            Public Key Algorithm: rsaEncryption
                Public-Key: (2048 bit)
                Modulus:
                    00:ab:c4:41:ad:cb:7a:50:89:66:65:f0:09:de:db:
                    91:2b:b7:e1:7b:1e:4b:28:c5:29:31:a5:db:15:54:
                    44:df:f5:c8:b2:b6:0f:8f:18:90:2a:d2:75:b6:1c:
                    1e:57:1b:c2:6c:8d:88:5b:55:49:0c:19:97:dc:46:
                    c9:c5:c6:ba:8d:70:38:87:dd:9c:cd:79:2b:e9:74:
                    b4:87:cc:e0:6d:b7:3a:8e:5d:58:fe:53:70:5d:ca:
                    91:a3:52:8d:2f:ac:22:0e:5d:8a:0e:75:fb:51:be:
                    f4:e4:cb:a9:45:2f:a2:06:1b:64:97:90:cd:d6:0f:
                    a1:63:be:85:4d:f3:79:c9:09:e6:c4:50:6a:e2:e9:
                    e4:f2:a6:06:de:91:7b:71:54:2b:97:57:ca:6d:32:
                    30:05:7b:30:db:6f:8c:e4:95:2e:0c:d1:a8:af:f6:
                    ee:3b:9a:08:d6:64:64:94:81:6d:f2:ae:74:f3:d0:
                    03:82:5e:4a:f3:8f:c9:05:c5:1d:99:ce:43:8d:d1:
                    9b:5f:cf:8e:18:5d:eb:e0:b6:12:1e:68:de:eb:2d:
                    0a:85:96:67:4b:56:48:9a:9a:e4:40:ee:f5:e0:72:
                    77:6b:d7:72:42:cd:7f:9e:7d:0a:e6:35:f5:0f:38:
                    4f:d1:40:f5:66:a3:34:4c:5e:85:3b:f0:d8:83:22:
                    8d:b5
                Exponent: 65537 (0x10001)
        X509v3 extensions:
            Authority Information Access: 
                CA Issuers - URI:https://fedoraproject.org/wiki/Features/SecureBoot
            X509v3 Authority Key Identifier: 
                B2:80:C7:AE:6B:88:4E:0F:4D:2A:0D:87:24:C2:5E:AF:6C:65:C3:26
            X509v3 Key Usage: critical
                Digital Signature, Certificate Sign, CRL Sign
            X509v3 Basic Constraints: critical
                CA:TRUE
            X509v3 Subject Key Identifier: 
                B2:80:C7:AE:6B:88:4E:0F:4D:2A:0D:87:24:C2:5E:AF:6C:65:C3:26
    Signature Algorithm: sha256WithRSAEncryption
    Signature Value:
        6a:ea:11:d7:96:b3:7f:ef:aa:b8:3f:dd:c7:74:c9:5c:e7:14:
        f5:73:5d:c4:b4:22:b7:f1:82:d2:ff:3d:4b:55:a0:db:c2:3a:
        5c:d8:16:25:02:2f:64:36:b9:61:07:f5:7d:bd:00:d0:c0:c1:
        ad:72:48:9c:82:c7:5a:97:47:52:61:fc:3a:8a:9f:92:e0:11:
        a7:fd:89:30:e0:f7:72:42:d9:e2:7b:41:61:17:b3:e7:69:80:
        78:1e:3b:bb:77:52:eb:c6:4e:80:b1:b4:2d:b6:66:a2:c0:84:
        59:e1:eb:bf:b1:21:2a:1a:e1:73:0a:74:62:98:48:6e:44:ce:
        80:fa:e2:5b:67:85:39:86:61:6e:6b:41:1f:30:15:c4:52:4d:
        6a:d7:2b:7f:0d:8d:ac:8c:a4:ea:15:c0:79:a3:e1:c1:39:3e:
        3a:70:d3:bc:bf:d1:81:95:70:2b:75:c3:7c:bc:e2:f1:69:76:
        51:ca:cd:c9:60:86:bc:c5:2d:25:8d:43:81:24:0c:3e:b7:ce:
        77:72:ad:08:83:d8:31:0f:e3:59:1d:ed:d3:29:61:e8:d7:c2:
        9d:a9:dd:cf:4f:5b:61:05:1f:67:bc:6e:ee:c0:50:d3:85:80:
        de:69:99:a4:60:33:90:40:7d:01:ed:82:4c:93:f3:cb:1f:dd:
        5f:a0:9c:c3
-----BEGIN CERTIFICATE-----
MIIEWzCCA0OgAwIBAgIQIjmvBBMMRESz83ftvhr3hjANBgkqhkiG9w0BAQsFADCB
jTELMAkGA1UEBhMCVVMxFjAUBgNVBAgTDU1hc3NhY2h1c2V0dHMxEjAQBgNVBAcT
CUNhbWJyaWRnZTEWMBQGA1UEChMNUmVkIEhhdCwgSW5jLjEnMCUGA1UECxMeRmVk
b3JhIFNlY3VyZSBCb290IENBIDIwMjAwNzA5MREwDwYDVQQDEwhmZWRvcmFjYTAe
Fw0yMDA3MTMxNzMxMTZaFw0zNzAxMTkwMzE0MDdaMIGNMQswCQYDVQQGEwJVUzEW
MBQGA1UECBMNTWFzc2FjaHVzZXR0czESMBAGA1UEBxMJQ2FtYnJpZGdlMRYwFAYD
VQQKEw1SZWQgSGF0LCBJbmMuMScwJQYDVQQLEx5GZWRvcmEgU2VjdXJlIEJvb3Qg
Q0EgMjAyMDA3MDkxETAPBgNVBAMTCGZlZG9yYWNhMIIBIjANBgkqhkiG9w0BAQEF
AAOCAQ8AMIIBCgKCAQEAq8RBrct6UIlmZfAJ3tuRK7fhex5LKMUpMaXbFVRE3/XI
srYPjxiQKtJ1thweVxvCbI2IW1VJDBmX3EbJxca6jXA4h92czXkr6XS0h8zgbbc6
jl1Y/lNwXcqRo1KNL6wiDl2KDnX7Ub705MupRS+iBhtkl5DN1g+hY76FTfN5yQnm
xFBq4unk8qYG3pF7cVQrl1fKbTIwBXsw22+M5JUuDNGor/buO5oI1mRklIFt8q50
89ADgl5K84/JBcUdmc5DjdGbX8+OGF3r4LYSHmje6y0KhZZnS1ZImprkQO714HJ3
a9dyQs1/nn0K5jX1DzhP0UD1ZqM0TF6FO/DYgyKNtQIDAQABo4G0MIGxME4GCCsG
AQUFBwEBBEIwQDA+BggrBgEFBQcwAoYyaHR0cHM6Ly9mZWRvcmFwcm9qZWN0Lm9y
Zy93aWtpL0ZlYXR1cmVzL1NlY3VyZUJvb3QwHwYDVR0jBBgwFoAUsoDHrmuITg9N
Kg2HJMJer2xlwyYwDgYDVR0PAQH/BAQDAgGGMA8GA1UdEwEB/wQFMAMBAf8wHQYD
VR0OBBYEFLKAx65riE4PTSoNhyTCXq9sZcMmMA0GCSqGSIb3DQEBCwUAA4IBAQBq
6hHXlrN/76q4P93HdMlc5xT1c13EtCK38YLS/z1LVaDbwjpc2BYlAi9kNrlhB/V9
vQDQwMGtckicgsdal0dSYfw6ip+S4BGn/Ykw4PdyQtnie0FhF7PnaYB4Hju7d1Lr
xk6AsbQttmaiwIRZ4eu/sSEqGuFzCnRimEhuRM6A+uJbZ4U5hmFua0EfMBXEUk1q
1yt/DY2sjKTqFcB5o+HBOT46cNO8v9GBlXArdcN8vOLxaXZRys3JYIa8xS0ljUOB
JAw+t853cq0Ig9gxD+NZHe3TKWHo18Kdqd3PT1thBR9nvG7uwFDThYDeaZmkYDOQ
QH0B7YJMk/PLH91foJzD
-----END CERTIFICATE-----
