Certificate:
    Data:
        Version: 3 (0x2)
        Serial Number: 2574709492 (0x9976f2f4)
        Signature Algorithm: sha256WithRSAEncryption
        Issuer: CN = Fedora Secure Boot CA
        Validity
            Not Before: Dec  7 16:25:54 2012 GMT
            Not After : Dec  5 16:25:54 2022 GMT
        Subject: CN = Fedora Secure Boot CA
        Subject Public Key Info:
            Public Key Algorithm: rsaEncryption
                Public-Key: (2048 bit)
                Modulus:
                    00:ae:f5:f7:52:81:a9:5c:3e:2b:f7:1d:55:f4:5a:
                    68:84:2d:bc:8b:76:96:85:0d:27:b8:18:a5:cd:c1:
                    83:b2:8c:27:5d:23:0a:d1:12:0a:75:98:a2:e6:5d:
                    01:8a:f4:d9:9f:fc:70:bc:c3:c4:17:7b:02:b5:13:
                    c4:51:92:e0:c0:05:74:b9:2e:3d:24:78:a0:79:73:
                    94:c0:c2:2b:b2:82:a7:f4:ab:67:4a:22:f3:64:cd:
                    c3:f9:0c:26:01:bf:1b:d5:3d:39:bf:c9:fa:fb:5e:
                    52:b9:a4:48:fb:13:bf:87:29:0a:64:ef:21:7b:bc:
                    1e:16:7b:88:4f:f1:40:2b:d9:22:15:47:4e:84:f6:
                    24:1c:4d:53:16:5a:b1:29:bb:5e:7d:7f:c0:d4:e2:
                    d5:79:af:59:73:02:dc:b7:48:bf:ae:2b:70:c1:fa:
                    74:7f:79:f5:ee:23:d0:03:05:b1:79:18:4f:fd:4f:
                    2f:e2:63:19:4d:77:ba:c1:2c:8b:b3:d9:05:2e:d9:
                    d8:b6:51:13:bf:ce:36:67:97:e4:ad:58:56:07:ab:
                    d0:8c:66:12:49:dc:91:68:b4:c8:ea:dd:9c:c0:81:
                    c6:91:5b:db:12:78:db:ff:c1:af:08:16:fc:70:13:
                    97:5b:57:ad:6b:44:98:7e:1f:ec:ed:46:66:95:0f:
                    05:55
                Exponent: 65537 (0x10001)
        X509v3 extensions:
            Authority Information Access: 
                CA Issuers - URI:https://fedoraproject.org/wiki/Features/SecureBoot
            X509v3 Authority Key Identifier: 
                FD:E3:25:99:C2:D6:1D:B1:BF:58:07:33:5D:7B:20:E4:CD:96:3B:42
            X509v3 Extended Key Usage: 
                Code Signing
            X509v3 Subject Key Identifier: 
                FD:E3:25:99:C2:D6:1D:B1:BF:58:07:33:5D:7B:20:E4:CD:96:3B:42
    Signature Algorithm: sha256WithRSAEncryption
    Signature Value:
        37:77:f0:3a:41:a2:1c:9f:71:3b:d6:9b:95:b5:15:df:4a:b6:
        f4:d1:51:ba:0d:04:da:9c:b2:23:f0:f3:34:59:8d:b8:d4:9a:
        75:74:65:80:17:61:3a:c1:96:7f:a7:c1:2b:d3:1a:d6:60:3c:
        71:3a:a4:c4:e3:39:03:02:15:12:08:1f:4e:cd:97:50:f8:ff:
        50:cc:b6:3e:03:7d:7a:e7:82:7a:c2:67:be:c9:0e:11:0f:16:
        2e:1e:a9:f2:6e:fe:04:bd:ea:9e:f4:a9:b3:d9:d4:61:57:08:
        87:c4:98:d8:a2:99:64:de:15:54:8d:57:79:14:1f:fa:0d:4d:
        6b:cd:98:35:f5:0c:06:bd:f3:31:d6:fe:05:1f:60:90:b6:1e:
        10:f7:24:e0:3c:f6:33:50:cd:44:c2:71:18:51:bd:18:31:81:
        1e:32:e1:e6:9f:f9:9c:02:53:b4:e5:6a:41:d6:65:b4:2e:f1:
        cf:b3:b8:82:b0:a3:96:e2:24:d8:83:ae:06:5b:b3:24:74:4d:
        d1:a4:0a:1d:0a:32:1b:75:a2:96:d1:0e:3e:e1:30:c3:18:e8:
        cb:53:c4:0b:00:ad:7e:ad:c8:49:41:ef:97:69:bd:13:5f:ef:
        ef:3c:da:60:05:d8:92:fc:da:6a:ea:48:3f:0e:3e:73:77:fd:
        a6:89:e9:3f
-----BEGIN CERTIFICATE-----
MIIDaDCCAlCgAwIBAgIFAJl28vQwDQYJKoZIhvcNAQELBQAwIDEeMBwGA1UEAxMV
RmVkb3JhIFNlY3VyZSBCb290IENBMB4XDTEyMTIwNzE2MjU1NFoXDTIyMTIwNTE2
MjU1NFowIDEeMBwGA1UEAxMVRmVkb3JhIFNlY3VyZSBCb290IENBMIIBIjANBgkq
hkiG9w0BAQEFAAOCAQ8AMIIBCgKCAQEArvX3UoGpXD4r9x1V9FpohC28i3aWhQ0n
uBilzcGDsownXSMK0RIKdZii5l0BivTZn/xwvMPEF3sCtRPEUZLgwAV0uS49JHig
eXOUwMIrsoKn9KtnSiLzZM3D+QwmAb8b1T05v8n6+15SuaRI+xO/hykKZO8he7we
FnuIT/FAK9kiFUdOhPYkHE1TFlqxKbtefX/A1OLVea9ZcwLct0i/ritwwfp0f3n1
7iPQAwWxeRhP/U8v4mMZTXe6wSyLs9kFLtnYtlETv842Z5fkrVhWB6vQjGYSSdyR
aLTI6t2cwIHGkVvbEnjb/8GvCBb8cBOXW1eta0SYfh/s7UZmlQ8FVQIDAQABo4Go
MIGlME4GCCsGAQUFBwEBBEIwQDA+BggrBgEFBQcwAoYyaHR0cHM6Ly9mZWRvcmFw
cm9qZWN0Lm9yZy93aWtpL0ZlYXR1cmVzL1NlY3VyZUJvb3QwHwYDVR0jBBgwFoAU
/eMlmcLWHbG/WAczXXsg5M2WO0IwEwYDVR0lBAwwCgYIKwYBBQUHAwMwHQYDVR0O
BBYEFP3jJZnC1h2xv1gHM117IOTNljtCMA0GCSqGSIb3DQEBCwUAA4IBAQA3d/A6
QaIcn3E71puVtRXfSrb00VG6DQTanLIj8PM0WY241Jp1dGWAF2E6wZZ/p8Er0xrW
YDxxOqTE4zkDAhUSCB9OzZdQ+P9QzLY+A31654J6wme+yQ4RDxYuHqnybv4Eveqe
9Kmz2dRhVwiHxJjYoplk3hVUjVd5FB/6DU1rzZg19QwGvfMx1v4FH2CQth4Q9yTg
PPYzUM1EwnEYUb0YMYEeMuHmn/mcAlO05WpB1mW0LvHPs7iCsKOW4iTYg64GW7Mk
dE3RpAodCjIbdaKW0Q4+4TDDGOjLU8QLAK1+rchJQe+Xab0TX+/vPNpgBdiS/Npq
6kg/Dj5zd/2miek/
-----END CERTIFICATE-----
