Certificate:
    Data:
        Version: 3 (0x2)
        Serial Number:
            61:08:d3:c4:00:00:00:00:00:04
        Signature Algorithm: sha256WithRSAEncryption
        Issuer: C = US, ST = Washington, L = Redmond, O = Microsoft Corporation, CN = Microsoft Corporation Third Party Marketplace Root
        Validity
            Not Before: Jun 27 21:22:45 2011 GMT
            Not After : Jun 27 21:32:45 2026 GMT
        Subject: C = US, ST = Washington, L = Redmond, O = Microsoft Corporation, CN = Microsoft Corporation UEFI CA 2011
        Subject Public Key Info:
            Public Key Algorithm: rsaEncryption
                RSA Public-Key: (2048 bit)
                Modulus:
                    00:a5:08:6c:4c:c7:45:09:6a:4b:0c:a4:c0:87:7f:
                    06:75:0c:43:01:54:64:e0:16:7f:07:ed:92:7d:0b:
                    b2:73:bf:0c:0a:c6:4a:45:61:a0:c5:16:2d:96:d3:
                    f5:2b:a0:fb:4d:49:9b:41:80:90:3c:b9:54:fd:e6:
                    bc:d1:9d:c4:a4:18:8a:7f:41:8a:5c:59:83:68:32:
                    bb:8c:47:c9:ee:71:bc:21:4f:9a:8a:7c:ff:44:3f:
                    8d:8f:32:b2:26:48:ae:75:b5:ee:c9:4c:1e:4a:19:
                    7e:e4:82:9a:1d:78:77:4d:0c:b0:bd:f6:0f:d3:16:
                    d3:bc:fa:2b:a5:51:38:5d:f5:fb:ba:db:78:02:db:
                    ff:ec:0a:1b:96:d5:83:b8:19:13:e9:b6:c0:7b:40:
                    7b:e1:1f:28:27:c9:fa:ef:56:5e:1c:e6:7e:94:7e:
                    c0:f0:44:b2:79:39:e5:da:b2:62:8b:4d:bf:38:70:
                    e2:68:24:14:c9:33:a4:08:37:d5:58:69:5e:d3:7c:
                    ed:c1:04:53:08:e7:4e:b0:2a:87:63:08:61:6f:63:
                    15:59:ea:b2:2b:79:d7:0c:61:67:8a:5b:fd:5e:ad:
                    87:7f:ba:86:67:4f:71:58:12:22:04:22:22:ce:8b:
                    ef:54:71:00:ce:50:35:58:76:95:08:ee:6a:b1:a2:
                    01:d5
                Exponent: 65537 (0x10001)
        X509v3 extensions:
            1.3.6.1.4.1.311.21.1: 
                .....
            1.3.6.1.4.1.311.21.2: 
                ....k..wSJ.%7.N.&{. p.
            X509v3 Subject Key Identifier: 
                13:AD:BF:43:09:BD:82:70:9C:8C:D5:4F:31:6E:D5:22:98:8A:1B:D4
            1.3.6.1.4.1.311.20.2: 
                .
.S.u.b.C.A
            X509v3 Key Usage: 
                Digital Signature, Certificate Sign, CRL Sign
            X509v3 Basic Constraints: critical
                CA:TRUE
            X509v3 Authority Key Identifier: 
                keyid:45:66:52:43:E1:7E:58:11:BF:D6:4E:9E:23:55:08:3B:3A:22:6A:A8

            X509v3 CRL Distribution Points: 

                Full Name:
                  URI:http://crl.microsoft.com/pki/crl/products/MicCorThiParMarRoo_2010-10-05.crl

            Authority Information Access: 
                CA Issuers - URI:http://www.microsoft.com/pki/certs/MicCorThiParMarRoo_2010-10-05.crt

    Signature Algorithm: sha256WithRSAEncryption
         35:08:42:ff:30:cc:ce:f7:76:0c:ad:10:68:58:35:29:46:32:
         76:27:7c:ef:12:41:27:42:1b:4a:aa:6d:81:38:48:59:13:55:
         f3:e9:58:34:a6:16:0b:82:aa:5d:ad:82:da:80:83:41:06:8f:
         b4:1d:f2:03:b9:f3:1a:5d:1b:f1:50:90:f9:b3:55:84:42:28:
         1c:20:bd:b2:ae:51:14:c5:c0:ac:97:95:21:1c:90:db:0f:fc:
         77:9e:95:73:91:88:ca:bd:bd:52:b9:05:50:0d:df:57:9e:a0:
         61:ed:0d:e5:6d:25:d9:40:0f:17:40:c8:ce:a3:4a:c2:4d:af:
         9a:12:1d:08:54:8f:bd:c7:bc:b9:2b:3d:49:2b:1f:32:fc:6a:
         21:69:4f:9b:c8:7e:42:34:fc:36:06:17:8b:8f:20:40:c0:b3:
         9a:25:75:27:cd:c9:03:a3:f6:5d:d1:e7:36:54:7a:b9:50:b5:
         d3:12:d1:07:bf:bb:74:df:dc:1e:8f:80:d5:ed:18:f4:2f:14:
         16:6b:2f:de:66:8c:b0:23:e5:c7:84:d8:ed:ea:c1:33:82:ad:
         56:4b:18:2d:f1:68:95:07:cd:cf:f0:72:f0:ae:bb:dd:86:85:
         98:2c:21:4c:33:2b:f0:0f:4a:f0:68:87:b5:92:55:32:75:a1:
         6a:82:6a:3c:a3:25:11:a4:ed:ad:d7:04:ae:cb:d8:40:59:a0:
         84:d1:95:4c:62:91:22:1a:74:1d:8c:3d:47:0e:44:a6:e4:b0:
         9b:34:35:b1:fa:b6:53:a8:2c:81:ec:a4:05:71:c8:9d:b8:ba:
         e8:1b:44:66:e4:47:54:0e:8e:56:7f:b3:9f:16:98:b2:86:d0:
         68:3e:90:23:b5:2f:5e:8f:50:85:8d:c6:8d:82:5f:41:a1:f4:
         2e:0d:e0:99:d2:6c:75:e4:b6:69:b5:21:86:fa:07:d1:f6:e2:
         4d:d1:da:ad:2c:77:53:1e:25:32:37:c7:6c:52:72:95:86:b0:
         f1:35:61:6a:19:f5:b2:3b:81:50:56:a6:32:2d:fe:a2:89:f9:
         42:86:27:18:55:a1:82:ca:5a:9b:f8:30:98:54:14:a6:47:96:
         25:2f:c8:26:e4:41:94:1a:5c:02:3f:e5:96:e3:85:5b:3c:3e:
         3f:bb:47:16:72:55:e2:25:22:b1:d9:7b:e7:03:06:2a:a3:f7:
         1e:90:46:c3:00:0d:d6:19:89:e3:0e:35:27:62:03:71:15:a6:
         ef:d0:27:a0:a0:59:37:60:f8:38:94:b8:e0:78:70:f8:ba:4c:
         86:87:94:f6:e0:ae:02:45:ee:65:c2:b6:a3:7e:69:16:75:07:
         92:9b:f5:a6:bc:59:83:58
-----BEGIN CERTIFICATE-----
MIIGEDCCA/igAwIBAgIKYQjTxAAAAAAABDANBgkqhkiG9w0BAQsFADCBkTELMAkG
A1UEBhMCVVMxEzARBgNVBAgTCldhc2hpbmd0b24xEDAOBgNVBAcTB1JlZG1vbmQx
HjAcBgNVBAoTFU1pY3Jvc29mdCBDb3Jwb3JhdGlvbjE7MDkGA1UEAxMyTWljcm9z
b2Z0IENvcnBvcmF0aW9uIFRoaXJkIFBhcnR5IE1hcmtldHBsYWNlIFJvb3QwHhcN
MTEwNjI3MjEyMjQ1WhcNMjYwNjI3MjEzMjQ1WjCBgTELMAkGA1UEBhMCVVMxEzAR
BgNVBAgTCldhc2hpbmd0b24xEDAOBgNVBAcTB1JlZG1vbmQxHjAcBgNVBAoTFU1p
Y3Jvc29mdCBDb3Jwb3JhdGlvbjErMCkGA1UEAxMiTWljcm9zb2Z0IENvcnBvcmF0
aW9uIFVFRkkgQ0EgMjAxMTCCASIwDQYJKoZIhvcNAQEBBQADggEPADCCAQoCggEB
AKUIbEzHRQlqSwykwId/BnUMQwFUZOAWfwftkn0LsnO/DArGSkVhoMUWLZbT9Sug
+01Jm0GAkDy5VP3mvNGdxKQYin9BilxZg2gyu4xHye5xvCFPmop8/0Q/jY8ysiZI
rnW17slMHkoZfuSCmh14d00MsL32D9MW07z6K6VROF31+7rbeALb/+wKG5bVg7gZ
E+m2wHtAe+EfKCfJ+u9WXhzmfpR+wPBEsnk55dqyYotNvzhw4mgkFMkzpAg31Vhp
XtN87cEEUwjnTrAqh2MIYW9jFVnqsit51wxhZ4pb/V6th3+6hmdPcVgSIgQiIs6L
71RxAM5QNVh2lQjuarGiAdUCAwEAAaOCAXYwggFyMBIGCSsGAQQBgjcVAQQFAgMB
AAEwIwYJKwYBBAGCNxUCBBYEFPjBa7d/d1NK8yU3HU6hJnsPIHCAMB0GA1UdDgQW
BBQTrb9DCb2CcJyM1U8xbtUimIob1DAZBgkrBgEEAYI3FAIEDB4KAFMAdQBiAEMA
QTALBgNVHQ8EBAMCAYYwDwYDVR0TAQH/BAUwAwEB/zAfBgNVHSMEGDAWgBRFZlJD
4X5YEb/WTp4jVQg7OiJqqDBcBgNVHR8EVTBTMFGgT6BNhktodHRwOi8vY3JsLm1p
Y3Jvc29mdC5jb20vcGtpL2NybC9wcm9kdWN0cy9NaWNDb3JUaGlQYXJNYXJSb29f
MjAxMC0xMC0wNS5jcmwwYAYIKwYBBQUHAQEEVDBSMFAGCCsGAQUFBzAChkRodHRw
Oi8vd3d3Lm1pY3Jvc29mdC5jb20vcGtpL2NlcnRzL01pY0NvclRoaVBhck1hclJv
b18yMDEwLTEwLTA1LmNydDANBgkqhkiG9w0BAQsFAAOCAgEANQhC/zDMzvd2DK0Q
aFg1KUYydid87xJBJ0IbSqptgThIWRNV8+lYNKYWC4KqXa2C2oCDQQaPtB3yA7nz
Gl0b8VCQ+bNVhEIoHCC9sq5RFMXArJeVIRyQ2w/8d56Vc5GIyr29UrkFUA3fV56g
Ye0N5W0l2UAPF0DIzqNKwk2vmhIdCFSPvce8uSs9SSsfMvxqIWlPm8h+QjT8NgYX
i48gQMCzmiV1J83JA6P2XdHnNlR6uVC10xLRB7+7dN/cHo+A1e0Y9C8UFmsv3maM
sCPlx4TY7erBM4KtVksYLfFolQfNz/By8K673YaFmCwhTDMr8A9K8GiHtZJVMnWh
aoJqPKMlEaTtrdcErsvYQFmghNGVTGKRIhp0HYw9Rw5EpuSwmzQ1sfq2U6gsgeyk
BXHInbi66BtEZuRHVA6OVn+znxaYsobQaD6QI7UvXo9QhY3GjYJfQaH0Lg3gmdJs
deS2abUhhvoH0fbiTdHarSx3Ux4lMjfHbFJylYaw8TVhahn1sjuBUFamMi3+oon5
QoYnGFWhgspam/gwmFQUpkeWJS/IJuRBlBpcAj/lluOFWzw+P7tHFnJV4iUisdl7
5wMGKqP3HpBGwwAN1hmJ4w41J2IDcRWm79AnoKBZN2D4OJS44Hhw+LpMhoeU9uCu
AkXuZcK2o35pFnUHkpv1prxZg1g=
-----END CERTIFICATE-----
