Certificate:
    Data:
        Version: 3 (0x2)
        Serial Number:
            a5:a6:d4:19:c6:39:a1:b4
        Signature Algorithm: sha256WithRSAEncryption
        Issuer: CN = Red Hat Secure Boot CA 6, emailAddress = secalert@redhat.com
        Validity
            Not Before: Feb 15 13:14:49 2021 GMT
            Not After : Jan 17 13:14:49 2038 GMT
        Subject: CN = Red Hat Secure Boot CA 6, emailAddress = secalert@redhat.com
        Subject Public Key Info:
            Public Key Algorithm: rsaEncryption
                Public-Key: (2048 bit)
                Modulus:
                    00:e6:8f:e2:36:74:e3:27:b4:fa:05:aa:d9:c8:72:
                    65:8a:5e:71:8c:1a:93:0c:2c:ac:e3:60:25:31:7a:
                    91:4d:a4:d4:ac:c6:7d:9b:bb:c2:02:7d:26:61:13:
                    58:71:97:c2:7e:28:4e:35:c6:18:67:5a:56:41:92:
                    af:5e:f6:01:46:b6:9b:72:70:69:f3:89:b1:54:2d:
                    c2:fa:d6:1e:47:b4:0f:2e:b3:a5:c4:4a:29:9d:1c:
                    16:dd:41:e1:31:09:d6:0b:b6:5e:a0:44:e4:af:60:
                    f9:03:e0:c3:45:f8:64:3c:1d:53:f7:01:60:ab:a0:
                    68:f3:b7:d3:59:c5:88:ec:4b:29:82:f5:8b:40:e6:
                    ee:18:16:7b:57:7f:29:f0:af:33:84:ac:51:0a:46:
                    c0:10:86:79:72:69:ea:ea:2f:c9:9c:a9:e8:23:4f:
                    fc:2d:a4:bf:dd:85:eb:52:2f:ce:fc:d0:51:05:35:
                    f2:a9:d7:33:7e:93:3d:1b:49:ca:73:55:c1:b0:49:
                    d5:8e:9e:ad:05:6c:3e:07:fa:a3:7f:5f:3f:ca:56:
                    70:d9:e9:fb:dc:d6:d8:9a:0e:41:1f:40:44:fa:00:
                    44:16:76:34:45:7e:f1:18:ee:8b:39:5e:13:aa:9d:
                    ab:d3:70:55:a0:04:8a:97:b4:97:88:9e:14:73:97:
                    15:77
                Exponent: 65537 (0x10001)
        X509v3 extensions:
            X509v3 Subject Key Identifier: 
                E8:6A:1C:AB:2C:48:F9:60:36:A2:F0:7B:8E:D2:9D:B4:2A:28:98:C8
            X509v3 Authority Key Identifier: 
                E8:6A:1C:AB:2C:48:F9:60:36:A2:F0:7B:8E:D2:9D:B4:2A:28:98:C8
            X509v3 Basic Constraints: critical
                CA:TRUE
    Signature Algorithm: sha256WithRSAEncryption
    Signature Value:
        20:50:94:ac:94:61:8f:8f:59:3c:d9:42:50:b9:80:7e:ac:e6:
        a9:40:0d:88:1d:e7:99:e1:79:c9:1e:48:42:9a:eb:92:3b:5c:
        ca:ea:44:fc:dc:b2:0d:6f:36:76:f4:a3:e5:2b:b5:08:65:bd:
        b2:59:50:69:a3:79:cd:aa:f1:16:67:c5:fb:4e:05:5a:0f:e0:
        af:d0:db:c9:20:44:b0:43:a0:d1:64:e1:60:68:ea:ec:f1:a7:
        9e:e1:ff:90:72:c7:7c:a0:09:a1:ec:0c:3c:f1:94:ec:31:e9:
        5d:e9:c5:52:9d:b8:f8:f5:62:fd:ff:21:84:5f:e7:3f:77:8d:
        ee:a2:f6:6b:85:f6:01:41:1f:dd:b8:b6:26:02:84:8e:f6:b1:
        77:80:5b:2a:b6:52:6c:fe:23:2a:d7:75:ce:d4:6e:01:92:31:
        1c:06:c5:05:67:eb:4f:49:da:4d:2f:ae:f6:3f:d9:fb:db:b3:
        b1:44:58:97:e5:dc:9f:58:ed:0d:d3:1e:1d:64:fd:84:28:32:
        80:2d:bc:b2:b5:01:c8:fb:09:2f:e4:2a:c6:a6:e9:70:37:82:
        93:87:91:53:a4:bf:37:29:0a:fa:74:4a:e2:52:e7:2c:da:e4:
        98:78:62:9f:51:7c:ac:ef:dc:bd:c7:ec:6c:dc:cb:5a:b0:87:
        92:ae:b2:86
-----BEGIN CERTIFICATE-----
MIIDZDCCAkygAwIBAgIJAKWm1BnGOaG0MA0GCSqGSIb3DQEBCwUAMEcxITAfBgNV
BAMMGFJlZCBIYXQgU2VjdXJlIEJvb3QgQ0EgNjEiMCAGCSqGSIb3DQEJARYTc2Vj
YWxlcnRAcmVkaGF0LmNvbTAeFw0yMTAyMTUxMzE0NDlaFw0zODAxMTcxMzE0NDla
MEcxITAfBgNVBAMMGFJlZCBIYXQgU2VjdXJlIEJvb3QgQ0EgNjEiMCAGCSqGSIb3
DQEJARYTc2VjYWxlcnRAcmVkaGF0LmNvbTCCASIwDQYJKoZIhvcNAQEBBQADggEP
ADCCAQoCggEBAOaP4jZ04ye0+gWq2chyZYpecYwakwwsrONgJTF6kU2k1KzGfZu7
wgJ9JmETWHGXwn4oTjXGGGdaVkGSr172AUa2m3JwafOJsVQtwvrWHke0Dy6zpcRK
KZ0cFt1B4TEJ1gu2XqBE5K9g+QPgw0X4ZDwdU/cBYKugaPO301nFiOxLKYL1i0Dm
7hgWe1d/KfCvM4SsUQpGwBCGeXJp6uovyZyp6CNP/C2kv92F61IvzvzQUQU18qnX
M36TPRtJynNVwbBJ1Y6erQVsPgf6o39fP8pWcNnp+9zW2JoOQR9ARPoARBZ2NEV+
8RjuizleE6qdq9NwVaAEipe0l4ieFHOXFXcCAwEAAaNTMFEwHQYDVR0OBBYEFOhq
HKssSPlgNqLwe47SnbQqKJjIMB8GA1UdIwQYMBaAFOhqHKssSPlgNqLwe47SnbQq
KJjIMA8GA1UdEwEB/wQFMAMBAf8wDQYJKoZIhvcNAQELBQADggEBACBQlKyUYY+P
WTzZQlC5gH6s5qlADYgd55nheckeSEKa65I7XMrqRPzcsg1vNnb0o+UrtQhlvbJZ
UGmjec2q8RZnxftOBVoP4K/Q28kgRLBDoNFk4WBo6uzxp57h/5Byx3ygCaHsDDzx
lOwx6V3pxVKduPj1Yv3/IYRf5z93je6i9muF9gFBH924tiYChI72sXeAWyq2Umz+
IyrXdc7UbgGSMRwGxQVn609J2k0vrvY/2fvbs7FEWJfl3J9Y7Q3THh1k/YQoMoAt
vLK1Acj7CS/kKsam6XA3gpOHkVOkvzcpCvp0SuJS5yza5Jh4Yp9RfKzv3L3H7Gzc
y1qwh5KusoY=
-----END CERTIFICATE-----
