Certificate:
    Data:
        Version: 3 (0x2)
        Serial Number:
            83:73:0d:2b:72:80:d1:5a
        Signature Algorithm: sha256WithRSAEncryption
        Issuer: O = "Red Hat, Inc.", CN = Red Hat Secure Boot CA 5, emailAddress = secalert@redhat.com
        Validity
            Not Before: Jun  9 08:15:36 2020 GMT
            Not After : Jan 18 08:15:36 2038 GMT
        Subject: O = "Red Hat, Inc.", CN = Red Hat Secure Boot CA 5, emailAddress = secalert@redhat.com
        Subject Public Key Info:
            Public Key Algorithm: rsaEncryption
                Public-Key: (2048 bit)
                Modulus:
                    00:ce:ba:ea:41:17:1c:81:a1:88:09:bf:a1:d4:a9:
                    fa:53:2e:9d:9e:bc:fc:3b:28:9c:30:52:a0:0b:f4:
                    00:0f:36:c8:83:41:f6:a9:c9:15:49:65:64:d5:b2:
                    76:9e:58:c1:2e:1e:ea:cf:93:38:6b:47:d6:ba:92:
                    c5:f8:00:e7:77:a5:57:69:df:41:b1:c4:90:5b:2d:
                    20:c1:74:aa:03:86:80:b6:a4:59:ef:a9:88:44:5e:
                    52:40:d4:77:15:a1:04:85:9c:ef:f3:c6:9f:f3:0f:
                    0f:d6:84:46:e4:66:dc:26:6a:d6:d8:8a:6e:47:4a:
                    ca:e3:4c:43:15:74:99:7a:06:32:8c:e0:33:bf:e5:
                    f8:46:67:3d:ea:0e:94:3b:bf:3d:dd:8b:f6:7f:30:
                    8c:45:54:0b:a4:de:23:35:5a:99:73:05:d8:80:e7:
                    65:14:1a:07:30:2c:73:86:b0:2d:a3:a6:36:a6:4d:
                    81:5d:91:a7:67:bb:ea:3b:5b:82:8a:9c:cf:83:da:
                    31:d1:54:34:16:bc:19:07:17:2a:94:4e:f0:ce:cf:
                    0d:ba:f4:fb:e4:d4:48:89:23:8b:8c:dc:8e:45:13:
                    d7:7a:a8:d5:e5:84:03:13:52:02:06:c2:d5:90:76:
                    3a:b5:d7:b8:9d:7a:b0:c9:d0:98:69:fb:8e:0d:01:
                    f5:85
                Exponent: 65537 (0x10001)
        X509v3 extensions:
            X509v3 Subject Key Identifier: 
                CC:6F:A5:E7:28:68:BA:49:4E:93:9B:BD:68:0B:91:44:76:9A:9F:8F
            X509v3 Authority Key Identifier: 
                CC:6F:A5:E7:28:68:BA:49:4E:93:9B:BD:68:0B:91:44:76:9A:9F:8F
            X509v3 Basic Constraints: critical
                CA:TRUE
    Signature Algorithm: sha256WithRSAEncryption
    Signature Value:
        1d:e7:5e:42:6a:66:cc:72:3e:9b:5c:c9:af:a3:ca:54:2e:ed:
        64:ab:c0:b9:17:be:27:a9:1e:58:b1:59:3c:4d:11:74:d1:97:
        1a:52:05:84:05:8a:d9:f0:85:c8:f5:ec:8f:9c:e9:e7:08:6d:
        bb:3a:cb:fa:6f:3c:33:e6:78:4d:75:bd:df:c0:95:72:9f:03:
        50:d2:75:2a:7c:b4:81:e0:87:62:94:5c:ef:cf:6b:da:3a:e3:
        bf:6e:18:74:34:55:50:0c:22:51:8e:aa:58:30:be:bd:3e:30:
        4d:b6:97:b5:13:1b:6d:af:6c:18:3b:71:4a:09:a1:89:17:a7:
        e7:18:f5:6d:51:b1:d3:10:c8:0e:d6:e4:32:19:02:4b:1a:b2:
        d2:dc:29:a3:26:95:1d:01:06:e4:52:69:78:06:d3:30:44:44:
        b0:75:77:cc:54:ad:e4:6e:22:22:ff:5d:ff:93:06:0c:f9:98:
        3a:9c:39:b7:0c:81:d0:f3:f8:07:a7:09:8b:6f:9c:8a:e1:ad:
        fc:41:98:50:a6:5f:0b:ba:a5:7f:1c:fc:83:8d:06:59:2e:9e:
        6e:bf:f4:3e:c3:1a:74:66:25:94:8a:5d:bf:21:b6:13:9b:9f:
        67:f8:7e:dc:42:1f:4c:0e:dd:88:73:7d:8c:95:d0:3f:77:c1:
        90:b8:64:f1
-----BEGIN CERTIFICATE-----
MIIDlDCCAnygAwIBAgIJAINzDStygNFaMA0GCSqGSIb3DQEBCwUAMF8xFjAUBgNV
BAoMDVJlZCBIYXQsIEluYy4xITAfBgNVBAMMGFJlZCBIYXQgU2VjdXJlIEJvb3Qg
Q0EgNTEiMCAGCSqGSIb3DQEJARYTc2VjYWxlcnRAcmVkaGF0LmNvbTAeFw0yMDA2
MDkwODE1MzZaFw0zODAxMTgwODE1MzZaMF8xFjAUBgNVBAoMDVJlZCBIYXQsIElu
Yy4xITAfBgNVBAMMGFJlZCBIYXQgU2VjdXJlIEJvb3QgQ0EgNTEiMCAGCSqGSIb3
DQEJARYTc2VjYWxlcnRAcmVkaGF0LmNvbTCCASIwDQYJKoZIhvcNAQEBBQADggEP
ADCCAQoCggEBAM666kEXHIGhiAm/odSp+lMunZ68/DsonDBSoAv0AA82yINB9qnJ
FUllZNWydp5YwS4e6s+TOGtH1rqSxfgA53elV2nfQbHEkFstIMF0qgOGgLakWe+p
iEReUkDUdxWhBIWc7/PGn/MPD9aERuRm3CZq1tiKbkdKyuNMQxV0mXoGMozgM7/l
+EZnPeoOlDu/Pd2L9n8wjEVUC6TeIzVamXMF2IDnZRQaBzAsc4awLaOmNqZNgV2R
p2e76jtbgoqcz4PaMdFUNBa8GQcXKpRO8M7PDbr0++TUSIkji4zcjkUT13qo1eWE
AxNSAgbC1ZB2OrXXuJ16sMnQmGn7jg0B9YUCAwEAAaNTMFEwHQYDVR0OBBYEFMxv
pecoaLpJTpObvWgLkUR2mp+PMB8GA1UdIwQYMBaAFMxvpecoaLpJTpObvWgLkUR2
mp+PMA8GA1UdEwEB/wQFMAMBAf8wDQYJKoZIhvcNAQELBQADggEBAB3nXkJqZsxy
Pptcya+jylQu7WSrwLkXviepHlixWTxNEXTRlxpSBYQFitnwhcj17I+c6ecIbbs6
y/pvPDPmeE11vd/AlXKfA1DSdSp8tIHgh2KUXO/Pa9o6479uGHQ0VVAMIlGOqlgw
vr0+ME22l7UTG22vbBg7cUoJoYkXp+cY9W1RsdMQyA7W5DIZAksastLcKaMmlR0B
BuRSaXgG0zBERLB1d8xUreRuIiL/Xf+TBgz5mDqcObcMgdDz+AenCYtvnIrhrfxB
mFCmXwu6pX8c/IONBlkunm6/9D7DGnRmJZSKXb8hthObn2f4ftxCH0wO3YhzfYyV
0D93wZC4ZPE=
-----END CERTIFICATE-----
