Certificate:
    Data:
        Version: 3 (0x2)
        Serial Number:
            ad:8e:19:64:68:34:ff:5d
        Signature Algorithm: sha256WithRSAEncryption
        Issuer: CN = Red Hat Secure Boot (CA key 1), emailAddress = secalert@redhat.com
        Validity
            Not Before: Feb 12 12:44:45 2014 GMT
            Not After : Feb  6 12:44:45 2037 GMT
        Subject: CN = Red Hat Secure Boot (CA key 1), emailAddress = secalert@redhat.com
        Subject Public Key Info:
            Public Key Algorithm: rsaEncryption
                Public-Key: (2048 bit)
                Modulus:
                    00:9b:43:20:03:4c:6e:1b:54:72:b7:83:9e:bb:83:
                    a4:51:85:d1:d2:3c:f9:99:3e:7d:ba:93:79:b3:bf:
                    b8:38:c2:26:f3:52:d4:63:4b:2b:91:fa:a9:4c:e4:
                    a2:7f:8e:d1:08:11:e3:b0:50:1f:c1:6e:42:23:6d:
                    e0:23:59:be:91:ec:6b:ca:f7:6c:10:25:8f:33:be:
                    bc:8d:83:42:57:fe:d9:95:7e:eb:fd:18:84:f5:87:
                    e8:65:f1:1c:3b:e6:9d:4a:f9:30:42:88:cf:cf:68:
                    d7:13:71:6d:3b:02:63:a9:0b:b6:f1:cc:0e:67:7b:
                    23:f8:60:d7:f3:11:35:b0:bd:2f:70:22:20:f6:d0:
                    f7:47:83:12:22:f6:75:52:1d:7f:0f:9a:58:ac:97:
                    e9:1b:30:13:9d:6c:c6:c4:6c:8b:57:5d:68:29:73:
                    e2:77:75:e4:d4:88:0b:25:0c:54:0e:c0:ce:6a:ea:
                    10:54:4e:e3:2d:30:b0:60:84:14:2e:a8:68:b7:32:
                    44:bc:68:ee:d0:cd:72:43:20:ce:16:41:93:dc:01:
                    aa:0b:15:fe:bd:b6:ec:f9:e9:dd:34:d5:ae:06:6e:
                    8c:d0:55:d2:47:66:35:f2:bf:0f:c8:71:7d:69:c1:
                    86:ab:92:60:58:a5:91:67:38:8f:11:d1:e7:cf:6d:
                    02:fd
                Exponent: 65537 (0x10001)
        X509v3 extensions:
            X509v3 Subject Key Identifier: 
                40:16:84:16:44:CE:3A:81:04:08:05:07:66:E8:F8:A2:9C:65:F8:5C
            X509v3 Authority Key Identifier: 
                keyid:40:16:84:16:44:CE:3A:81:04:08:05:07:66:E8:F8:A2:9C:65:F8:5C
                DirName:/CN=Red Hat Secure Boot (CA key 1)/emailAddress=secalert@redhat.com
                serial:AD:8E:19:64:68:34:FF:5D
            X509v3 Basic Constraints: 
                CA:TRUE
    Signature Algorithm: sha256WithRSAEncryption
    Signature Value:
        55:65:e3:4a:50:8e:56:17:65:c7:2e:c0:5f:7b:8d:00:db:ec:
        de:ad:a4:3d:0b:74:13:1c:8e:0c:5b:79:77:a5:50:78:a5:c3:
        43:ed:44:ea:35:c2:4b:b9:0b:10:f3:1f:4d:8f:81:82:c8:be:
        8a:36:64:b9:1e:35:f9:79:fa:ee:20:8f:e5:a0:70:5e:80:af:
        a1:96:33:44:b6:23:51:af:df:77:28:91:72:08:b9:9f:26:76:
        d0:da:80:95:3e:a0:14:eb:67:69:e0:69:bf:c0:ce:f3:3a:f3:
        ea:e9:6e:42:28:4e:cf:46:12:f3:85:7c:ff:9a:69:cf:f4:5f:
        34:8c:6d:ee:4e:b3:9d:3d:96:ce:b6:69:ec:91:9a:0c:f6:88:
        88:48:e6:21:33:8b:83:61:06:e0:95:13:93:ca:9c:4b:d0:a1:
        df:f2:4f:03:ab:fe:4a:2f:c3:60:8d:79:35:b9:57:44:77:6f:
        cb:ac:44:0e:8a:4c:0f:42:7e:25:f2:ee:d0:60:6b:89:e4:2b:
        77:b7:ee:27:02:f8:3e:29:6c:14:62:05:4c:c0:98:ec:21:7a:
        6f:7b:ee:fa:88:96:47:7d:89:b7:64:48:0c:09:03:bb:a8:5f:
        ac:8e:a4:55:eb:59:a4:e7:43:40:b0:bb:20:63:0d:e3:1d:04:
        d4:17:51:64
-----BEGIN CERTIFICATE-----
MIIDzTCCArWgAwIBAgIJAK2OGWRoNP9dMA0GCSqGSIb3DQEBCwUAME0xJzAlBgNV
BAMTHlJlZCBIYXQgU2VjdXJlIEJvb3QgKENBIGtleSAxKTEiMCAGCSqGSIb3DQEJ
ARYTc2VjYWxlcnRAcmVkaGF0LmNvbTAeFw0xNDAyMTIxMjQ0NDVaFw0zNzAyMDYx
MjQ0NDVaME0xJzAlBgNVBAMTHlJlZCBIYXQgU2VjdXJlIEJvb3QgKENBIGtleSAx
KTEiMCAGCSqGSIb3DQEJARYTc2VjYWxlcnRAcmVkaGF0LmNvbTCCASIwDQYJKoZI
hvcNAQEBBQADggEPADCCAQoCggEBAJtDIANMbhtUcreDnruDpFGF0dI8+Zk+fbqT
ebO/uDjCJvNS1GNLK5H6qUzkon+O0QgR47BQH8FuQiNt4CNZvpHsa8r3bBAljzO+
vI2DQlf+2ZV+6/0YhPWH6GXxHDvmnUr5MEKIz89o1xNxbTsCY6kLtvHMDmd7I/hg
1/MRNbC9L3AiIPbQ90eDEiL2dVIdfw+aWKyX6RswE51sxsRsi1ddaClz4nd15NSI
CyUMVA7AzmrqEFRO4y0wsGCEFC6oaLcyRLxo7tDNckMgzhZBk9wBqgsV/r227Pnp
3TTVrgZujNBV0kdmNfK/D8hxfWnBhquSYFilkWc4jxHR589tAv0CAwEAAaOBrzCB
rDAdBgNVHQ4EFgQUQBaEFkTOOoEECAUHZuj4opxl+FwwfQYDVR0jBHYwdIAUQBaE
FkTOOoEECAUHZuj4opxl+FyhUaRPME0xJzAlBgNVBAMTHlJlZCBIYXQgU2VjdXJl
IEJvb3QgKENBIGtleSAxKTEiMCAGCSqGSIb3DQEJARYTc2VjYWxlcnRAcmVkaGF0
LmNvbYIJAK2OGWRoNP9dMAwGA1UdEwQFMAMBAf8wDQYJKoZIhvcNAQELBQADggEB
AFVl40pQjlYXZccuwF97jQDb7N6tpD0LdBMcjgxbeXelUHilw0PtROo1wku5CxDz
H02PgYLIvoo2ZLkeNfl5+u4gj+WgcF6Ar6GWM0S2I1Gv33cokXIIuZ8mdtDagJU+
oBTrZ2ngab/AzvM68+rpbkIoTs9GEvOFfP+aac/0XzSMbe5Os509ls62aeyRmgz2
iIhI5iEzi4NhBuCVE5PKnEvQod/yTwOr/kovw2CNeTW5V0R3b8usRA6KTA9CfiXy
7tBga4nkK3e37icC+D4pbBRiBUzAmOwhem977vqIlkd9ibdkSAwJA7uoX6yOpFXr
WaTnQ0CwuyBjDeMdBNQXUWQ=
-----END CERTIFICATE-----
