Certificate:
    Data:
        Version: 3 (0x2)
        Serial Number:
            fe:f5:88:e8:f3:96:c0:f1
        Signature Algorithm: sha256WithRSAEncryption
        Issuer: CN = Red Hat Secure Boot (PK/KEK key 1), emailAddress = secalert@redhat.com
        Validity
            Not Before: Oct 31 11:15:37 2014 GMT
            Not After : Oct 25 11:15:37 2037 GMT
        Subject: CN = Red Hat Secure Boot (PK/KEK key 1), emailAddress = secalert@redhat.com
        Subject Public Key Info:
            Public Key Algorithm: rsaEncryption
                RSA Public-Key: (2048 bit)
                Modulus:
                    00:90:1f:84:7b:8d:bc:eb:97:26:82:6d:88:ab:8a:
                    c9:8c:68:70:f9:df:4b:07:b2:37:83:0b:02:c8:67:
                    68:30:9e:e3:f0:f0:99:4a:b8:59:57:c6:41:f6:38:
                    8b:fe:66:4c:49:e9:37:37:92:2e:98:01:1e:5b:14:
                    50:e6:a8:8d:25:0d:f5:86:e6:ab:30:cb:40:16:ea:
                    8d:8b:16:86:70:43:37:f2:ce:c0:91:df:71:14:8e:
                    99:0e:89:b6:4c:6d:24:1e:8c:e4:2f:4f:25:d0:ba:
                    06:f8:c6:e8:19:18:76:73:1d:81:6d:a8:d8:05:cf:
                    3a:c8:7b:28:c8:36:a3:16:0d:29:8c:99:9a:68:dc:
                    ab:c0:4d:8d:bf:5a:bb:2b:a9:39:4b:04:97:1c:f9:
                    36:bb:c5:3a:86:04:ae:af:d4:82:7b:e0:ab:de:49:
                    05:68:fc:f6:ae:68:1a:6c:90:4d:57:19:3c:64:66:
                    03:f6:c7:52:9b:f7:94:cf:93:6a:a1:68:c9:aa:cf:
                    99:6b:bc:aa:5e:08:e7:39:1c:f7:f8:0f:ba:06:7e:
                    f1:cb:e8:76:dd:fe:22:da:ad:3a:5e:5b:34:ea:b3:
                    c9:e0:4d:04:29:7e:b8:60:b9:05:ef:b5:d9:17:58:
                    56:16:60:b9:30:32:f0:36:4a:c3:f2:79:8d:12:40:
                    70:f3
                Exponent: 65537 (0x10001)
        X509v3 extensions:
            X509v3 Basic Constraints: 
                CA:FALSE
            Netscape Comment: 
                OpenSSL Generated Certificate
            X509v3 Subject Key Identifier: 
                3C:E9:60:E3:FF:19:A1:0A:7B:A3:42:F4:8D:42:2E:B4:D5:9C:72:EC
            X509v3 Authority Key Identifier: 
                keyid:3C:E9:60:E3:FF:19:A1:0A:7B:A3:42:F4:8D:42:2E:B4:D5:9C:72:EC

    Signature Algorithm: sha256WithRSAEncryption
         5c:4d:92:88:b4:82:5f:1d:ad:8b:11:ec:df:06:a6:7a:a5:2b:
         9f:37:55:0c:8d:6e:05:00:ad:b7:0c:41:89:69:cf:d6:65:06:
         9b:51:78:d2:ad:c7:bf:9c:dc:05:73:7f:e7:1e:39:13:b4:ea:
         b6:30:7d:40:75:ab:9c:43:0b:df:b0:c2:1b:bf:30:e0:f4:fe:
         c0:db:62:21:98:f6:c5:af:de:3b:4f:49:0a:e6:1e:f9:86:b0:
         3f:0d:d6:d4:46:37:db:54:74:5e:ff:11:c2:60:c6:70:58:c5:
         1c:6f:ec:b2:d8:6e:6f:c3:bc:33:87:38:a4:f3:44:64:9c:34:
         3b:28:94:26:78:27:9f:16:17:e8:3b:69:0a:25:a9:73:36:7e:
         9e:37:5c:ec:e8:3f:db:91:f9:12:b3:3d:ce:e7:dd:15:c3:ae:
         8c:05:20:61:9b:95:de:9b:af:fa:b1:5c:1c:e5:97:e7:c3:34:
         11:85:f5:8a:27:26:a4:70:36:ec:0c:f6:83:3d:90:f7:36:f3:
         f9:f3:15:d4:90:62:be:53:b4:af:d3:49:af:ef:f4:73:e8:7b:
         76:e4:44:2a:37:ba:81:a4:99:0c:3a:31:24:71:a0:e4:e4:b7:
         1a:cb:47:e4:aa:22:cf:ef:75:61:80:e3:43:b7:48:57:73:11:
         3d:78:9b:69
-----BEGIN CERTIFICATE-----
MIIDoDCCAoigAwIBAgIJAP71iOjzlsDxMA0GCSqGSIb3DQEBCwUAMFExKzApBgNV
BAMTIlJlZCBIYXQgU2VjdXJlIEJvb3QgKFBLL0tFSyBrZXkgMSkxIjAgBgkqhkiG
9w0BCQEWE3NlY2FsZXJ0QHJlZGhhdC5jb20wHhcNMTQxMDMxMTExNTM3WhcNMzcx
MDI1MTExNTM3WjBRMSswKQYDVQQDEyJSZWQgSGF0IFNlY3VyZSBCb290IChQSy9L
RUsga2V5IDEpMSIwIAYJKoZIhvcNAQkBFhNzZWNhbGVydEByZWRoYXQuY29tMIIB
IjANBgkqhkiG9w0BAQEFAAOCAQ8AMIIBCgKCAQEAkB+Ee42865cmgm2Iq4rJjGhw
+d9LB7I3gwsCyGdoMJ7j8PCZSrhZV8ZB9jiL/mZMSek3N5IumAEeWxRQ5qiNJQ31
huarMMtAFuqNixaGcEM38s7Akd9xFI6ZDom2TG0kHozkL08l0LoG+MboGRh2cx2B
bajYBc86yHsoyDajFg0pjJmaaNyrwE2Nv1q7K6k5SwSXHPk2u8U6hgSur9SCe+Cr
3kkFaPz2rmgabJBNVxk8ZGYD9sdSm/eUz5NqoWjJqs+Za7yqXgjnORz3+A+6Bn7x
y+h23f4i2q06Xls06rPJ4E0EKX64YLkF77XZF1hWFmC5MDLwNkrD8nmNEkBw8wID
AQABo3sweTAJBgNVHRMEAjAAMCwGCWCGSAGG+EIBDQQfFh1PcGVuU1NMIEdlbmVy
YXRlZCBDZXJ0aWZpY2F0ZTAdBgNVHQ4EFgQUPOlg4/8ZoQp7o0L0jUIutNWccuww
HwYDVR0jBBgwFoAUPOlg4/8ZoQp7o0L0jUIutNWccuwwDQYJKoZIhvcNAQELBQAD
ggEBAFxNkoi0gl8drYsR7N8GpnqlK583VQyNbgUArbcMQYlpz9ZlBptReNKtx7+c
3AVzf+ceORO06rYwfUB1q5xDC9+wwhu/MOD0/sDbYiGY9sWv3jtPSQrmHvmGsD8N
1tRGN9tUdF7/EcJgxnBYxRxv7LLYbm/DvDOHOKTzRGScNDsolCZ4J58WF+g7aQol
qXM2fp43XOzoP9uR+RKzPc7n3RXDrowFIGGbld6br/qxXBzll+fDNBGF9YonJqRw
NuwM9oM9kPc28/nzFdSQYr5TtK/TSa/v9HPoe3bkRCo3uoGkmQw6MSRxoOTktxrL
R+SqIs/vdWGA40O3SFdzET14m2k=
-----END CERTIFICATE-----
